; Function Attrs: nounwind uwtable
define void @lv_chart_set_ext_x_array(ptr noundef %0, ptr noundef %1, ptr noundef %2) local_unnamed_addr #0 {
  %.not = icmp eq ptr %1, null
  br i1 %.not, label %.preheader, label %4

.preheader:                                       ; preds = %3, %.preheader
  br label %.preheader

4:                                                ; preds = %3
  %5 = getelementptr inbounds nuw i8, ptr %1, i64 24
  %6 = load i8, ptr %5, align 8
  %7 = and i8 %6, 2
  %.not9 = icmp eq i8 %7, 0
  br i1 %.not9, label %8, label %11

8:                                                ; preds = %4
  %9 = load ptr, ptr %1, align 8, !tbaa !21
  %.not10 = icmp eq ptr %9, null
  br i1 %.not10, label %11, label %10

10:                                               ; preds = %8
  tail call void @lv_free(ptr noundef nonnull %9) #8
  %.pre = load i8, ptr %5, align 8
  br label %11

11:                                               ; preds = %10, %8, %4
  %12 = phi i8 [ %.pre, %10 ], [ %6, %8 ], [ %6, %4 ]
  %13 = or i8 %12, 2
  store i8 %13, ptr %5, align 8
  store ptr %2, ptr %1, align 8, !tbaa !21
  tail call void @lv_obj_invalidate(ptr noundef %0) #8
  ret void
}